target datalayout = "e-m:e-p270:32:32-p271:32:32-p272:64:64-i64:64-i128:128-f80:128-n8:16:32:64-S128"
target triple = "x86_64-pc-linux-gnu"

@stderr = external global ptr, align 8
@infile = internal global ptr null, align 8
@.str.11 = private unnamed_addr constant [4 x i8] c"%s\0A\00", align 1
@.str.16 = private unnamed_addr constant [27 x i8] c"Premature EOF in JPEG file\00", align 1
@.str.34 = private unnamed_addr constant [29 x i8] c"Erroneous JPEG marker length\00", align 1
@.str.35 = private unnamed_addr constant [1 x i8] zeroinitializer, align 1
@stdout = external global ptr, align 8
@.str.36 = private unnamed_addr constant [2 x i8] c"\0A\00", align 1
@.str.37 = private unnamed_addr constant [3 x i8] c"\\\\\00", align 1
@.str.38 = private unnamed_addr constant [6 x i8] c"\\%03o\00", align 1
@.str.39 = private unnamed_addr constant [2 x i8] c"C\00", align 1

; Function Attrs: nounwind uwtable
define internal i32 @read_1_byte() #0 {
  %1 = alloca i32, align 4
  %2 = load ptr, ptr @infile, align 8
  %3 = call i32 @getc(ptr noundef %2)
  store i32 %3, ptr %1, align 4
  %4 = load i32, ptr %1, align 4
  %5 = icmp eq i32 %4, -1
  br i1 %5, label %6, label %9

6:                                                ; preds = %0
  %7 = load ptr, ptr @stderr, align 8
  %8 = call i32 (ptr, ptr, ...) @fprintf(ptr noundef %7, ptr noundef @.str.11, ptr noundef @.str.16) #6
  call void @exit(i32 noundef 1) #7
  unreachable

9:                                                ; preds = %0
  %10 = load i32, ptr %1, align 4
  ret i32 %10
}

; Function Attrs: nounwind uwtable
define internal void @process_COM(i32 noundef %0) #0 {
  %2 = alloca i32, align 4
  %3 = alloca i32, align 4
  %4 = alloca i32, align 4
  %5 = alloca i32, align 4
  store i32 %0, ptr %2, align 4
  store i32 0, ptr %5, align 4
  %6 = call ptr @setlocale(i32 noundef 0, ptr noundef @.str.35) #6
  %7 = call i32 @read_2_bytes()
  store i32 %7, ptr %3, align 4
  %8 = load i32, ptr %3, align 4
  %9 = icmp ult i32 %8, 2
  br i1 %9, label %10, label %13

10:                                               ; preds = %1
  %11 = load ptr, ptr @stderr, align 8
  %12 = call i32 (ptr, ptr, ...) @fprintf(ptr noundef %11, ptr noundef @.str.11, ptr noundef @.str.34) #6
  call void @exit(i32 noundef 1) #7
  unreachable

13:                                               ; preds = %1
  %14 = load i32, ptr %3, align 4
  %15 = sub i32 %14, 2
  store i32 %15, ptr %3, align 4
  br label %16

16:                                               ; preds = %67, %13
  %17 = load i32, ptr %3, align 4
  %18 = icmp ugt i32 %17, 0
  br i1 %18, label %19, label %71

19:                                               ; preds = %16
  %20 = call i32 @read_1_byte()
  store i32 %20, ptr %4, align 4
  %21 = load i32, ptr %2, align 4
  %22 = icmp ne i32 %21, 0
  br i1 %22, label %23, label %27

23:                                               ; preds = %19
  %24 = load i32, ptr %4, align 4
  %25 = load ptr, ptr @stdout, align 8
  %26 = call i32 @putc(i32 noundef %24, ptr noundef %25)
  br label %67

27:                                               ; preds = %19
  %28 = load i32, ptr %4, align 4
  %29 = icmp eq i32 %28, 13
  br i1 %29, label %30, label %32

30:                                               ; preds = %27
  %31 = call i32 (ptr, ...) @printf(ptr noundef @.str.36)
  br label %66

32:                                               ; preds = %27
  %33 = load i32, ptr %4, align 4
  %34 = icmp eq i32 %33, 10
  br i1 %34, label %35, label %41

35:                                               ; preds = %32
  %36 = load i32, ptr %5, align 4
  %37 = icmp ne i32 %36, 13
  br i1 %37, label %38, label %40

38:                                               ; preds = %35
  %39 = call i32 (ptr, ...) @printf(ptr noundef @.str.36)
  br label %40

40:                                               ; preds = %38, %35
  br label %65

41:                                               ; preds = %32
  %42 = load i32, ptr %4, align 4
  %43 = icmp eq i32 %42, 92
  br i1 %43, label %44, label %46

44:                                               ; preds = %41
  %45 = call i32 (ptr, ...) @printf(ptr noundef @.str.37)
  br label %64

46:                                               ; preds = %41
  %47 = call ptr @__ctype_b_loc() #8
  %48 = load ptr, ptr %47, align 8
  %49 = load i32, ptr %4, align 4
  %50 = sext i32 %49 to i64
  %51 = getelementptr inbounds i16, ptr %48, i64 %50
  %52 = load i16, ptr %51, align 2
  %53 = zext i16 %52 to i32
  %54 = and i32 %53, 16384
  %55 = icmp ne i32 %54, 0
  br i1 %55, label %56, label %60

56:                                               ; preds = %46
  %57 = load i32, ptr %4, align 4
  %58 = load ptr, ptr @stdout, align 8
  %59 = call i32 @putc(i32 noundef %57, ptr noundef %58)
  br label %63

60:                                               ; preds = %46
  %61 = load i32, ptr %4, align 4
  %62 = call i32 (ptr, ...) @printf(ptr noundef @.str.38, i32 noundef %61)
  br label %63

63:                                               ; preds = %60, %56
  br label %64

64:                                               ; preds = %63, %44
  br label %65

65:                                               ; preds = %64, %40
  br label %66

66:                                               ; preds = %65, %30
  br label %67

67:                                               ; preds = %66, %23
  %68 = load i32, ptr %4, align 4
  store i32 %68, ptr %5, align 4
  %69 = load i32, ptr %3, align 4
  %70 = add i32 %69, -1
  store i32 %70, ptr %3, align 4
  br label %16, !llvm.loop !12

71:                                               ; preds = %16
  %72 = call i32 (ptr, ...) @printf(ptr noundef @.str.36)
  %73 = call ptr @setlocale(i32 noundef 0, ptr noundef @.str.39) #6
  ret void
}