; Function Attrs: nounwind uwtable
define internal fastcc void @process_COM(i32 noundef %0) unnamed_addr #3 {
  %2 = tail call ptr @setlocale(i32 noundef 0, ptr noundef nonnull @.str.35) #13
  %3 = tail call fastcc i32 @read_2_bytes()
  %4 = icmp ult i32 %3, 2
  br i1 %4, label %5, label %8

5:                                                ; preds = %1
  %6 = load ptr, ptr @stderr, align 8
  %7 = tail call i32 (ptr, ptr, ...) @fprintf(ptr noundef %6, ptr noundef nonnull @.str.11, ptr noundef nonnull @.str.34) #11
  tail call void @exit(i32 noundef 1) #12
  unreachable

8:                                                ; preds = %1
  %9 = add i32 %3, -2
  %.not22 = icmp eq i32 %9, 0
  br i1 %.not22, label %._crit_edge, label %.lr.ph

.lr.ph:                                           ; preds = %8
  %.not17 = icmp eq i32 %0, 0
  br i1 %.not17, label %.lr.ph.split.us, label %.lr.ph.split

.lr.ph.split.us:                                  ; preds = %.lr.ph, %29
  %.024.us = phi i32 [ %11, %29 ], [ 0, %.lr.ph ]
  %.01423.us = phi i32 [ %30, %29 ], [ %9, %.lr.ph ]
  %10 = load ptr, ptr @infile, align 8
  %11 = tail call i32 @getc(ptr noundef %10)
  switch i32 %11, label %17 [
    i32 -1, label %.split.us
    i32 13, label %16
    i32 10, label %14
    i32 92, label %12
  ]

12:                                               ; preds = %.lr.ph.split.us
  %13 = tail call i32 (ptr, ...) @printf(ptr noundef nonnull dereferenceable(1) @.str.37)
  br label %29

14:                                               ; preds = %.lr.ph.split.us
  %.not19.us = icmp eq i32 %.024.us, 13
  br i1 %.not19.us, label %29, label %15

15:                                               ; preds = %14
  %putchar20.us = tail call i32 @putchar(i32 10)
  br label %29

16:                                               ; preds = %.lr.ph.split.us
  %putchar21.us = tail call i32 @putchar(i32 10)
  br label %29

17:                                               ; preds = %.lr.ph.split.us
  %18 = tail call ptr @__ctype_b_loc() #8
  %19 = load ptr, ptr %18, align 8
  %20 = sext i32 %11 to i64
  %21 = getelementptr inbounds i16, ptr %19, i64 %20
  %22 = load i16, ptr %21, align 2
  %23 = and i16 %22, 16384
  %.not18.us = icmp eq i16 %23, 0
  br i1 %.not18.us, label %27, label %24

24:                                               ; preds = %17
  %25 = load ptr, ptr @stdout, align 8
  %26 = tail call i32 @putc(i32 noundef %11, ptr noundef %25)
  br label %29

27:                                               ; preds = %17
  %28 = tail call i32 (ptr, ...) @printf(ptr noundef nonnull dereferenceable(1) @.str.38, i32 noundef %11)
  br label %29

29:                                               ; preds = %27, %24, %16, %15, %14, %12
  %30 = add i32 %.01423.us, -1
  %.not.us = icmp eq i32 %30, 0
  br i1 %.not.us, label %._crit_edge, label %.lr.ph.split.us, !llvm.loop !11

.lr.ph.split:                                     ; preds = %.lr.ph, %read_1_byte.exit
  %.01423 = phi i32 [ %38, %read_1_byte.exit ], [ %9, %.lr.ph ]
  %31 = load ptr, ptr @infile, align 8
  %32 = tail call i32 @getc(ptr noundef %31)
  %33 = icmp eq i32 %32, -1
  br i1 %33, label %.split.us, label %read_1_byte.exit

.split.us:                                        ; preds = %.lr.ph.split, %.lr.ph.split.us
  %34 = load ptr, ptr @stderr, align 8
  %35 = tail call i32 (ptr, ptr, ...) @fprintf(ptr noundef %34, ptr noundef nonnull @.str.11, ptr noundef nonnull @.str.16) #11
  tail call void @exit(i32 noundef 1) #12
  unreachable

read_1_byte.exit:                                 ; preds = %.lr.ph.split
  %36 = load ptr, ptr @stdout, align 8
  %37 = tail call i32 @putc(i32 noundef %32, ptr noundef %36)
  %38 = add i32 %.01423, -1
  %.not = icmp eq i32 %38, 0
  br i1 %.not, label %._crit_edge, label %.lr.ph.split, !llvm.loop !11

._crit_edge:                                      ; preds = %read_1_byte.exit, %29, %8
  %putchar = tail call i32 @putchar(i32 10)
  %39 = tail call ptr @setlocale(i32 noundef 0, ptr noundef nonnull @.str.39) #13
  ret void
}